#include <math.h>
#include <stdio.h>
#include <stdlib.h>
#include <string.h>

int number(int n)
{
    int i;
    for(i=2;i<n;i++)
    if(n%i==0)
    return 0;
    return 1;
}
int main()
{
    int m,i;
    scanf("%d", &m);
    for(i=3;i<m;i=i+2)
    {
    if(number(i)&&number(m-i))
    {
                              if(i<=m-i)
                              printf("%d %d\n", i, m-i);
                              
    }
    }

    return 0;
}     
